target datalayout = "e-m:e-p270:32:32-p271:32:32-p272:64:64-i64:64-i128:128-f80:128-n8:16:32:64-S128"
target triple = "x86_64-unknown-linux-gnu"

%struct.QTailQLink = type { ptr, ptr }
%struct.BlockDriverState = type { i32, i8, i8, i8, i8, i8, ptr, ptr, ptr, %struct.anon.0, i8, [4096 x i8], [4096 x i8], [4096 x i8], [16 x i8], ptr, [4096 x i8], %struct.BlockLimits, i32, i32, i32, i32, [32 x i8], %union.anon.1, %union.anon.2, %union.anon.3, i32, [16 x %struct.anon.4], ptr, %struct.anon.5, ptr, ptr, %struct.anon.6, ptr, ptr, i32, ptr, i64, i64, %struct.QemuMutex, %struct.anon.7, %struct.Stat64, i32, i32, i32, i32, i32, i32, %struct.QemuMutex, %struct.anon.8, %struct.CoQueue, i8, i32, i8, %struct.CoMutex, ptr, ptr }
%struct.anon.0 = type { ptr }
%struct.BlockLimits = type { i32, i64, i32, i64, i32, i32, i32, i64, i32, i64, i64, i32, i8, i32, i32, i32, i32, i32, i32, i32 }
%union.anon.1 = type { %struct.QTailQLink }
%union.anon.2 = type { %struct.QTailQLink }
%union.anon.3 = type { %struct.QTailQLink }
%struct.anon.4 = type { ptr }
%struct.anon.5 = type { ptr }
%struct.anon.6 = type { ptr }
%struct.anon.7 = type { ptr }
%struct.Stat64 = type { i64 }
%struct.QemuMutex = type { %union.pthread_mutex_t, i8 }
%union.pthread_mutex_t = type { %struct.__pthread_mutex_s }
%struct.__pthread_mutex_s = type { i32, i32, i32, i32, i32, i16, i16, %struct.__pthread_internal_list }
%struct.__pthread_internal_list = type { ptr, ptr }
%struct.anon.8 = type { ptr }
%struct.CoQueue = type { %struct.anon.9 }
%struct.anon.9 = type { ptr, ptr }
%struct.CoMutex = type { i32, ptr, %struct.anon.10, %struct.anon.10, i32, i32, ptr }
%struct.anon.10 = type { ptr }
%struct.BDRVVmdkState = type { %struct.CoMutex, i64, i8, i8, i32, i32, i32, ptr, ptr, ptr }

; Function Attrs: nounwind sspstrong uwtable
define internal void @vmdk_free_last_extent(ptr noundef %bs) #0 {
entry:
  %bs.addr = alloca ptr, align 8
  %s = alloca ptr, align 8
  store ptr %bs, ptr %bs.addr, align 8
  %0 = load ptr, ptr %bs.addr, align 8
  %opaque = getelementptr inbounds %struct.BlockDriverState, ptr %0, i32 0, i32 7
  %1 = load ptr, ptr %opaque, align 8
  store ptr %1, ptr %s, align 8
  %2 = load ptr, ptr %s, align 8
  %num_extents = getelementptr inbounds %struct.BDRVVmdkState, ptr %2, i32 0, i32 6
  %3 = load i32, ptr %num_extents, align 4
  %cmp = icmp eq i32 %3, 0
  br i1 %cmp, label %if.then, label %if.end

if.then:                                          ; preds = %entry
  br label %return

if.end:                                           ; preds = %entry
  %4 = load ptr, ptr %s, align 8
  %num_extents1 = getelementptr inbounds %struct.BDRVVmdkState, ptr %4, i32 0, i32 6
  %5 = load i32, ptr %num_extents1, align 4
  %dec = add i32 %5, -1
  store i32 %dec, ptr %num_extents1, align 4
  %6 = load ptr, ptr %s, align 8
  %extents = getelementptr inbounds %struct.BDRVVmdkState, ptr %6, i32 0, i32 7
  %7 = load ptr, ptr %extents, align 8
  %8 = load ptr, ptr %s, align 8
  %num_extents2 = getelementptr inbounds %struct.BDRVVmdkState, ptr %8, i32 0, i32 6
  %9 = load i32, ptr %num_extents2, align 4
  %conv = sext i32 %9 to i64
  %call = call ptr @g_realloc_n(ptr noundef %7, i64 noundef %conv, i64 noundef 272)
  %10 = load ptr, ptr %s, align 8
  %extents3 = getelementptr inbounds %struct.BDRVVmdkState, ptr %10, i32 0, i32 7
  store ptr %call, ptr %extents3, align 8
  br label %return

return:                                           ; preds = %if.end, %if.then
  ret void
}