; Function Attrs: nounwind sspstrong uwtable
define internal fastcc void @vmdk_free_last_extent(ptr captures(none) %bs.24.val) unnamed_addr #0 {
entry:
  %num_extents = getelementptr inbounds nuw i8, ptr %bs.24.val, i64 68
  %0 = load i32, ptr %num_extents, align 4
  %cmp = icmp eq i32 %0, 0
  br i1 %cmp, label %return, label %if.end

if.end:                                           ; preds = %entry
  %dec = add i32 %0, -1
  store i32 %dec, ptr %num_extents, align 4
  %extents = getelementptr inbounds nuw i8, ptr %bs.24.val, i64 72
  %1 = load ptr, ptr %extents, align 8
  %conv = sext i32 %dec to i64
  %call = tail call ptr @g_realloc_n(ptr noundef %1, i64 noundef %conv, i64 noundef 272) #15
  store ptr %call, ptr %extents, align 8
  br label %return

return:                                           ; preds = %entry, %if.end
  ret void
}